target datalayout = "e-m:e-p270:32:32-p271:32:32-p272:64:64-i64:64-i128:128-f80:128-n8:16:32:64-S128"
target triple = "x86_64-pc-linux-gnu"

%struct.HashJoinTableData = type { i32, i32, i32, i32, i32, %union.anon, i8, ptr, i32, i32, ptr, i32, i32, i32, i32, i8, double, double, double, ptr, ptr, i64, i64, i64, i64, i64, ptr, ptr, ptr, ptr, ptr, ptr, ptr, ptr, i64 }
%union.anon = type { ptr }

; Function Attrs: nounwind uwtable
define dso_local void @ExecHashTableDestroy(ptr noundef %0) #0 {
  %2 = alloca ptr, align 8
  %3 = alloca i32, align 4
  store ptr %0, ptr %2, align 8
  call void @llvm.lifetime.start.p0(i64 4, ptr %3) #9
  %4 = load ptr, ptr %2, align 8
  %5 = getelementptr inbounds nuw %struct.HashJoinTableData, ptr %4, i32 0, i32 19
  %6 = load ptr, ptr %5, align 8
  %7 = icmp ne ptr %6, null
  br i1 %7, label %8, label %54

8:                                                ; preds = %1
  store i32 1, ptr %3, align 4
  br label %9

9:                                                ; preds = %50, %8
  %10 = load i32, ptr %3, align 4
  %11 = load ptr, ptr %2, align 8
  %12 = getelementptr inbounds nuw %struct.HashJoinTableData, ptr %11, i32 0, i32 11
  %13 = load i32, ptr %12, align 8
  %14 = icmp slt i32 %10, %13
  br i1 %14, label %15, label %53

15:                                               ; preds = %9
  %16 = load ptr, ptr %2, align 8
  %17 = getelementptr inbounds nuw %struct.HashJoinTableData, ptr %16, i32 0, i32 19
  %18 = load ptr, ptr %17, align 8
  %19 = load i32, ptr %3, align 4
  %20 = sext i32 %19 to i64
  %21 = getelementptr inbounds ptr, ptr %18, i64 %20
  %22 = load ptr, ptr %21, align 8
  %23 = icmp ne ptr %22, null
  br i1 %23, label %24, label %32

24:                                               ; preds = %15
  %25 = load ptr, ptr %2, align 8
  %26 = getelementptr inbounds nuw %struct.HashJoinTableData, ptr %25, i32 0, i32 19
  %27 = load ptr, ptr %26, align 8
  %28 = load i32, ptr %3, align 4
  %29 = sext i32 %28 to i64
  %30 = getelementptr inbounds ptr, ptr %27, i64 %29
  %31 = load ptr, ptr %30, align 8
  call void @BufFileClose(ptr noundef %31)
  br label %32

32:                                               ; preds = %24, %15
  %33 = load ptr, ptr %2, align 8
  %34 = getelementptr inbounds nuw %struct.HashJoinTableData, ptr %33, i32 0, i32 20
  %35 = load ptr, ptr %34, align 8
  %36 = load i32, ptr %3, align 4
  %37 = sext i32 %36 to i64
  %38 = getelementptr inbounds ptr, ptr %35, i64 %37
  %39 = load ptr, ptr %38, align 8
  %40 = icmp ne ptr %39, null
  br i1 %40, label %41, label %49

41:                                               ; preds = %32
  %42 = load ptr, ptr %2, align 8
  %43 = getelementptr inbounds nuw %struct.HashJoinTableData, ptr %42, i32 0, i32 20
  %44 = load ptr, ptr %43, align 8
  %45 = load i32, ptr %3, align 4
  %46 = sext i32 %45 to i64
  %47 = getelementptr inbounds ptr, ptr %44, i64 %46
  %48 = load ptr, ptr %47, align 8
  call void @BufFileClose(ptr noundef %48)
  br label %49

49:                                               ; preds = %41, %32
  br label %50

50:                                               ; preds = %49
  %51 = load i32, ptr %3, align 4
  %52 = add i32 %51, 1
  store i32 %52, ptr %3, align 4
  br label %9, !llvm.loop !14

53:                                               ; preds = %9
  br label %54

54:                                               ; preds = %53, %1
  %55 = load ptr, ptr %2, align 8
  %56 = getelementptr inbounds nuw %struct.HashJoinTableData, ptr %55, i32 0, i32 26
  %57 = load ptr, ptr %56, align 8
  call void @MemoryContextDelete(ptr noundef %57)
  %58 = load ptr, ptr %2, align 8
  call void @pfree(ptr noundef %58)
  call void @llvm.lifetime.end.p0(i64 4, ptr %3) #9
  ret void
}