; Function Attrs: nounwind uwtable
define dso_local void @ExecHashTableDestroy(ptr noundef %0) local_unnamed_addr #0 {
  %2 = getelementptr inbounds nuw i8, ptr %0, i64 112
  %3 = load ptr, ptr %2, align 8
  %.not = icmp eq ptr %3, null
  br i1 %.not, label %.loopexit, label %.preheader

.preheader:                                       ; preds = %1
  %4 = getelementptr inbounds nuw i8, ptr %0, i64 64
  %5 = load i32, ptr %4, align 8
  %6 = icmp sgt i32 %5, 1
  br i1 %6, label %.lr.ph, label %.loopexit

.lr.ph:                                           ; preds = %.preheader
  %7 = getelementptr inbounds nuw i8, ptr %0, i64 120
  br label %8

8:                                                ; preds = %.lr.ph, %18
  %indvars.iv = phi i64 [ 1, %.lr.ph ], [ %indvars.iv.next, %18 ]
  %9 = load ptr, ptr %2, align 8
  %10 = getelementptr inbounds nuw ptr, ptr %9, i64 %indvars.iv
  %11 = load ptr, ptr %10, align 8
  %.not15 = icmp eq ptr %11, null
  br i1 %.not15, label %13, label %12

12:                                               ; preds = %8
  tail call void @BufFileClose(ptr noundef nonnull %11) #16
  br label %13

13:                                               ; preds = %12, %8
  %14 = load ptr, ptr %7, align 8
  %15 = getelementptr inbounds nuw ptr, ptr %14, i64 %indvars.iv
  %16 = load ptr, ptr %15, align 8
  %.not16 = icmp eq ptr %16, null
  br i1 %.not16, label %18, label %17

17:                                               ; preds = %13
  tail call void @BufFileClose(ptr noundef nonnull %16) #16
  br label %18

18:                                               ; preds = %13, %17
  %indvars.iv.next = add nuw nsw i64 %indvars.iv, 1
  %19 = load i32, ptr %4, align 8
  %20 = sext i32 %19 to i64
  %21 = icmp slt i64 %indvars.iv.next, %20
  br i1 %21, label %8, label %.loopexit, !llvm.loop !21

.loopexit:                                        ; preds = %18, %.preheader, %1
  %22 = getelementptr inbounds nuw i8, ptr %0, i64 168
  %23 = load ptr, ptr %22, align 8
  tail call void @MemoryContextDelete(ptr noundef %23) #16
  tail call void @pfree(ptr noundef nonnull %0) #16
  ret void
}